; Function Attrs: mustprogress nofree norecurse nosync nounwind willreturn memory(argmem: read) uwtable
define dso_local zeroext i1 @path_contains_parent_reference(ptr noundef readonly captures(none) %0) local_unnamed_addr #8 {
  %2 = load i8, ptr %0, align 1
  %3 = icmp eq i8 %2, 46
  br i1 %3, label %4, label %11

4:                                                ; preds = %1
  %5 = getelementptr inbounds nuw i8, ptr %0, i64 1
  %6 = load i8, ptr %5, align 1
  %7 = icmp eq i8 %6, 46
  br i1 %7, label %8, label %11

8:                                                ; preds = %4
  %9 = getelementptr inbounds nuw i8, ptr %0, i64 2
  %10 = load i8, ptr %9, align 1
  %switch.selectcmp.case1 = icmp eq i8 %10, 0
  %switch.selectcmp.case2 = icmp eq i8 %10, 47
  %switch.selectcmp = or i1 %switch.selectcmp.case1, %switch.selectcmp.case2
  br label %11

11:                                               ; preds = %1, %4, %8
  %.0 = phi i1 [ %switch.selectcmp, %8 ], [ false, %4 ], [ false, %1 ]
  ret i1 %.0
}